target datalayout = "e-m:e-p270:32:32-p271:32:32-p272:64:64-i64:64-i128:128-f80:128-n8:16:32:64-S128"
target triple = "x86_64-pc-linux-gnu"

%struct.http2_session_data = type { %struct.http2_stream_data, ptr, ptr, ptr, ptr }
%struct.http2_stream_data = type { ptr, ptr, ptr, i32, i32 }
%struct.nghttp2_frame_hd = type { i64, i32, i8, i8, i8 }
%struct.nghttp2_nv = type { ptr, ptr, i64, i64, i8 }
%struct.nghttp2_data_provider2 = type { %union.nghttp2_data_source, ptr }
%union.nghttp2_data_source = type { ptr }

@stderr = external global ptr, align 8
@.str.10 = private unnamed_addr constant [16 x i8] c"Fatal error: %s\00", align 1
@__const.on_request_recv.hdrs = private unnamed_addr constant [1 x { ptr, ptr, i64, i64, i8, [7 x i8] }] [{ ptr, ptr, i64, i64, i8, [7 x i8] } { ptr @.str.19, ptr @.str.20, i64 7, i64 3, i8 0, [7 x i8] zeroinitializer }], align 16
@.str.21 = private unnamed_addr constant [11 x i8] c"%s GET %s\0A\00", align 1
@.str.24 = private unnamed_addr constant [5 x i8] c"/../\00", align 1
@.str.25 = private unnamed_addr constant [4 x i8] c"/./\00", align 1
@.str.26 = private unnamed_addr constant [4 x i8] c"/..\00", align 1
@.str.27 = private unnamed_addr constant [3 x i8] c"/.\00", align 1

; Function Attrs: nounwind uwtable
define internal i32 @send_response(ptr noundef %0, i32 noundef %1, ptr noundef %2, i64 noundef %3, i32 noundef %4) #0 {
  %6 = alloca i32, align 4
  %7 = alloca ptr, align 8
  %8 = alloca i32, align 4
  %9 = alloca ptr, align 8
  %10 = alloca i64, align 8
  %11 = alloca i32, align 4
  %12 = alloca i32, align 4
  %13 = alloca %struct.nghttp2_data_provider2, align 8
  %14 = alloca i32, align 4
  store ptr %0, ptr %7, align 8, !tbaa !70
  store i32 %1, ptr %8, align 4, !tbaa !4
  store ptr %2, ptr %9, align 8, !tbaa !42
  store i64 %3, ptr %10, align 8, !tbaa !60
  store i32 %4, ptr %11, align 4, !tbaa !4
  call void @llvm.lifetime.start.p0(i64 4, ptr %12) #11
  call void @llvm.lifetime.start.p0(i64 16, ptr %13) #11
  %15 = load i32, ptr %11, align 4, !tbaa !4
  %16 = getelementptr inbounds nuw %struct.nghttp2_data_provider2, ptr %13, i32 0, i32 0
  store i32 %15, ptr %16, align 8, !tbaa !14
  %17 = getelementptr inbounds nuw %struct.nghttp2_data_provider2, ptr %13, i32 0, i32 1
  store ptr @file_read_callback, ptr %17, align 8, !tbaa !74
  %18 = load ptr, ptr %7, align 8, !tbaa !70
  %19 = load i32, ptr %8, align 4, !tbaa !4
  %20 = load ptr, ptr %9, align 8, !tbaa !42
  %21 = load i64, ptr %10, align 8, !tbaa !60
  %22 = call i32 @nghttp2_submit_response2(ptr noundef %18, i32 noundef %19, ptr noundef %20, i64 noundef %21, ptr noundef %13)
  store i32 %22, ptr %12, align 4, !tbaa !4
  %23 = load i32, ptr %12, align 4, !tbaa !4
  %24 = icmp ne i32 %23, 0
  br i1 %24, label %25, label %28

25:                                               ; preds = %5
  %26 = load i32, ptr %12, align 4, !tbaa !4
  %27 = call ptr @nghttp2_strerror(i32 noundef %26)
  call void (ptr, ...) @warnx(ptr noundef @.str.10, ptr noundef %27)
  store i32 -1, ptr %6, align 4
  store i32 1, ptr %14, align 4
  br label %29

28:                                               ; preds = %5
  store i32 0, ptr %6, align 4
  store i32 1, ptr %14, align 4
  br label %29

29:                                               ; preds = %28, %25
  call void @llvm.lifetime.end.p0(i64 16, ptr %13) #11
  call void @llvm.lifetime.end.p0(i64 4, ptr %12) #11
  %30 = load i32, ptr %6, align 4
  ret i32 %30
}

; Function Attrs: nounwind uwtable
define internal i32 @check_path(ptr noundef %0) #0 {
  %2 = alloca ptr, align 8
  store ptr %0, ptr %2, align 8, !tbaa !15
  %3 = load ptr, ptr %2, align 8, !tbaa !15
  %4 = getelementptr inbounds i8, ptr %3, i64 0
  %5 = load i8, ptr %4, align 1, !tbaa !14
  %6 = sext i8 %5 to i32
  %7 = icmp ne i32 %6, 0
  br i1 %7, label %8, label %35

8:                                                ; preds = %1
  %9 = load ptr, ptr %2, align 8, !tbaa !15
  %10 = getelementptr inbounds i8, ptr %9, i64 0
  %11 = load i8, ptr %10, align 1, !tbaa !14
  %12 = sext i8 %11 to i32
  %13 = icmp eq i32 %12, 47
  br i1 %13, label %14, label %35

14:                                               ; preds = %8
  %15 = load ptr, ptr %2, align 8, !tbaa !15
  %16 = call ptr @strchr(ptr noundef %15, i32 noundef 92) #15
  %17 = icmp eq ptr %16, null
  br i1 %17, label %18, label %35

18:                                               ; preds = %14
  %19 = load ptr, ptr %2, align 8, !tbaa !15
  %20 = call ptr @strstr(ptr noundef %19, ptr noundef @.str.24) #15
  %21 = icmp eq ptr %20, null
  br i1 %21, label %22, label %35

22:                                               ; preds = %18
  %23 = load ptr, ptr %2, align 8, !tbaa !15
  %24 = call ptr @strstr(ptr noundef %23, ptr noundef @.str.25) #15
  %25 = icmp eq ptr %24, null
  br i1 %25, label %26, label %35

26:                                               ; preds = %22
  %27 = load ptr, ptr %2, align 8, !tbaa !15
  %28 = call i32 @ends_with(ptr noundef %27, ptr noundef @.str.26)
  %29 = icmp ne i32 %28, 0
  br i1 %29, label %35, label %30

30:                                               ; preds = %26
  %31 = load ptr, ptr %2, align 8, !tbaa !15
  %32 = call i32 @ends_with(ptr noundef %31, ptr noundef @.str.27)
  %33 = icmp ne i32 %32, 0
  %34 = xor i1 %33, true
  br label %35

35:                                               ; preds = %30, %26, %22, %18, %14, %8, %1
  %36 = phi i1 [ false, %26 ], [ false, %22 ], [ false, %18 ], [ false, %14 ], [ false, %8 ], [ false, %1 ], [ %34, %30 ]
  %37 = zext i1 %36 to i32
  ret i32 %37
}

; Function Attrs: nounwind uwtable
define internal i32 @on_request_recv(ptr noundef %0, ptr noundef %1, ptr noundef %2) #0 {
  %4 = alloca i32, align 4
  %5 = alloca ptr, align 8
  %6 = alloca ptr, align 8
  %7 = alloca ptr, align 8
  %8 = alloca i32, align 4
  %9 = alloca [1 x %struct.nghttp2_nv], align 16
  %10 = alloca ptr, align 8
  %11 = alloca i32, align 4
  store ptr %0, ptr %5, align 8, !tbaa !70
  store ptr %1, ptr %6, align 8, !tbaa !44
  store ptr %2, ptr %7, align 8, !tbaa !63
  call void @llvm.lifetime.start.p0(i64 4, ptr %8) #11
  call void @llvm.lifetime.start.p0(i64 40, ptr %9) #11
  call void @llvm.memcpy.p0.p0.i64(ptr align 16 %9, ptr align 16 @__const.on_request_recv.hdrs, i64 40, i1 false)
  call void @llvm.lifetime.start.p0(i64 8, ptr %10) #11
  %12 = load ptr, ptr %7, align 8, !tbaa !63
  %13 = getelementptr inbounds nuw %struct.http2_stream_data, ptr %12, i32 0, i32 2
  %14 = load ptr, ptr %13, align 8, !tbaa !67
  %15 = icmp ne ptr %14, null
  br i1 %15, label %23, label %16

16:                                               ; preds = %3
  %17 = load ptr, ptr %5, align 8, !tbaa !70
  %18 = load ptr, ptr %7, align 8, !tbaa !63
  %19 = call i32 @error_reply(ptr noundef %17, ptr noundef %18)
  %20 = icmp ne i32 %19, 0
  br i1 %20, label %21, label %22

21:                                               ; preds = %16
  store i32 -902, ptr %4, align 4
  store i32 1, ptr %11, align 4
  br label %85

22:                                               ; preds = %16
  store i32 0, ptr %4, align 4
  store i32 1, ptr %11, align 4
  br label %85

23:                                               ; preds = %3
  %24 = load ptr, ptr @stderr, align 8, !tbaa !12
  %25 = load ptr, ptr %6, align 8, !tbaa !44
  %26 = getelementptr inbounds nuw %struct.http2_session_data, ptr %25, i32 0, i32 4
  %27 = load ptr, ptr %26, align 8, !tbaa !53
  %28 = load ptr, ptr %7, align 8, !tbaa !63
  %29 = getelementptr inbounds nuw %struct.http2_stream_data, ptr %28, i32 0, i32 2
  %30 = load ptr, ptr %29, align 8, !tbaa !67
  %31 = call i32 (ptr, ptr, ...) @fprintf(ptr noundef %24, ptr noundef @.str.21, ptr noundef %27, ptr noundef %30) #11
  %32 = load ptr, ptr %7, align 8, !tbaa !63
  %33 = getelementptr inbounds nuw %struct.http2_stream_data, ptr %32, i32 0, i32 2
  %34 = load ptr, ptr %33, align 8, !tbaa !67
  %35 = call i32 @check_path(ptr noundef %34)
  %36 = icmp ne i32 %35, 0
  br i1 %36, label %44, label %37

37:                                               ; preds = %23
  %38 = load ptr, ptr %5, align 8, !tbaa !70
  %39 = load ptr, ptr %7, align 8, !tbaa !63
  %40 = call i32 @error_reply(ptr noundef %38, ptr noundef %39)
  %41 = icmp ne i32 %40, 0
  br i1 %41, label %42, label %43

42:                                               ; preds = %37
  store i32 -902, ptr %4, align 4
  store i32 1, ptr %11, align 4
  br label %85

43:                                               ; preds = %37
  store i32 0, ptr %4, align 4
  store i32 1, ptr %11, align 4
  br label %85

44:                                               ; preds = %23
  %45 = load ptr, ptr %7, align 8, !tbaa !63
  %46 = getelementptr inbounds nuw %struct.http2_stream_data, ptr %45, i32 0, i32 2
  %47 = load ptr, ptr %46, align 8, !tbaa !67
  store ptr %47, ptr %10, align 8, !tbaa !15
  br label %48

48:                                               ; preds = %54, %44
  %49 = load ptr, ptr %10, align 8, !tbaa !15
  %50 = load i8, ptr %49, align 1, !tbaa !14
  %51 = sext i8 %50 to i32
  %52 = icmp eq i32 %51, 47
  br i1 %52, label %53, label %57

53:                                               ; preds = %48
  br label %54

54:                                               ; preds = %53
  %55 = load ptr, ptr %10, align 8, !tbaa !15
  %56 = getelementptr inbounds nuw i8, ptr %55, i32 1
  store ptr %56, ptr %10, align 8, !tbaa !15
  br label %48, !llvm.loop !72

57:                                               ; preds = %48
  %58 = load ptr, ptr %10, align 8, !tbaa !15
  %59 = call i32 (ptr, i32, ...) @open(ptr noundef %58, i32 noundef 0)
  store i32 %59, ptr %8, align 4, !tbaa !4
  %60 = load i32, ptr %8, align 4, !tbaa !4
  %61 = icmp eq i32 %60, -1
  br i1 %61, label %62, label %69

62:                                               ; preds = %57
  %63 = load ptr, ptr %5, align 8, !tbaa !70
  %64 = load ptr, ptr %7, align 8, !tbaa !63
  %65 = call i32 @error_reply(ptr noundef %63, ptr noundef %64)
  %66 = icmp ne i32 %65, 0
  br i1 %66, label %67, label %68

67:                                               ; preds = %62
  store i32 -902, ptr %4, align 4
  store i32 1, ptr %11, align 4
  br label %85

68:                                               ; preds = %62
  store i32 0, ptr %4, align 4
  store i32 1, ptr %11, align 4
  br label %85

69:                                               ; preds = %57
  %70 = load i32, ptr %8, align 4, !tbaa !4
  %71 = load ptr, ptr %7, align 8, !tbaa !63
  %72 = getelementptr inbounds nuw %struct.http2_stream_data, ptr %71, i32 0, i32 4
  store i32 %70, ptr %72, align 4, !tbaa !66
  %73 = load ptr, ptr %5, align 8, !tbaa !70
  %74 = load ptr, ptr %7, align 8, !tbaa !63
  %75 = getelementptr inbounds nuw %struct.http2_stream_data, ptr %74, i32 0, i32 3
  %76 = load i32, ptr %75, align 8, !tbaa !73
  %77 = getelementptr inbounds [1 x %struct.nghttp2_nv], ptr %9, i64 0, i64 0
  %78 = load i32, ptr %8, align 4, !tbaa !4
  %79 = call i32 @send_response(ptr noundef %73, i32 noundef %76, ptr noundef %77, i64 noundef 1, i32 noundef %78)
  %80 = icmp ne i32 %79, 0
  br i1 %80, label %81, label %84

81:                                               ; preds = %69
  %82 = load i32, ptr %8, align 4, !tbaa !4
  %83 = call i32 @close(i32 noundef %82)
  store i32 -902, ptr %4, align 4
  store i32 1, ptr %11, align 4
  br label %85

84:                                               ; preds = %69
  store i32 0, ptr %4, align 4
  store i32 1, ptr %11, align 4
  br label %85

85:                                               ; preds = %84, %81, %68, %67, %43, %42, %22, %21
  call void @llvm.lifetime.end.p0(i64 8, ptr %10) #11
  call void @llvm.lifetime.end.p0(i64 40, ptr %9) #11
  call void @llvm.lifetime.end.p0(i64 4, ptr %8) #11
  %86 = load i32, ptr %4, align 4
  ret i32 %86
}

; Function Attrs: nounwind uwtable
define internal i32 @on_frame_recv_callback(ptr noundef %0, ptr noundef %1, ptr noundef %2) #0 {
  %4 = alloca i32, align 4
  %5 = alloca ptr, align 8
  %6 = alloca ptr, align 8
  %7 = alloca ptr, align 8
  %8 = alloca ptr, align 8
  %9 = alloca ptr, align 8
  %10 = alloca i32, align 4
  store ptr %0, ptr %5, align 8, !tbaa !70
  store ptr %1, ptr %6, align 8, !tbaa !42
  store ptr %2, ptr %7, align 8, !tbaa !42
  call void @llvm.lifetime.start.p0(i64 8, ptr %8) #11
  %11 = load ptr, ptr %7, align 8, !tbaa !42
  store ptr %11, ptr %8, align 8, !tbaa !44
  call void @llvm.lifetime.start.p0(i64 8, ptr %9) #11
  %12 = load ptr, ptr %6, align 8, !tbaa !42
  %13 = getelementptr inbounds nuw %struct.nghttp2_frame_hd, ptr %12, i32 0, i32 2
  %14 = load i8, ptr %13, align 4, !tbaa !14
  %15 = zext i8 %14 to i32
  switch i32 %15, label %38 [
    i32 0, label %16
    i32 1, label %16
  ]

16:                                               ; preds = %3, %3
  %17 = load ptr, ptr %6, align 8, !tbaa !42
  %18 = getelementptr inbounds nuw %struct.nghttp2_frame_hd, ptr %17, i32 0, i32 3
  %19 = load i8, ptr %18, align 1, !tbaa !14
  %20 = zext i8 %19 to i32
  %21 = and i32 %20, 1
  %22 = icmp ne i32 %21, 0
  br i1 %22, label %23, label %37

23:                                               ; preds = %16
  %24 = load ptr, ptr %5, align 8, !tbaa !70
  %25 = load ptr, ptr %6, align 8, !tbaa !42
  %26 = getelementptr inbounds nuw %struct.nghttp2_frame_hd, ptr %25, i32 0, i32 1
  %27 = load i32, ptr %26, align 8, !tbaa !14
  %28 = call ptr @nghttp2_session_get_stream_user_data(ptr noundef %24, i32 noundef %27)
  store ptr %28, ptr %9, align 8, !tbaa !63
  %29 = load ptr, ptr %9, align 8, !tbaa !63
  %30 = icmp ne ptr %29, null
  br i1 %30, label %32, label %31

31:                                               ; preds = %23
  store i32 0, ptr %4, align 4
  store i32 1, ptr %10, align 4
  br label %40

32:                                               ; preds = %23
  %33 = load ptr, ptr %5, align 8, !tbaa !70
  %34 = load ptr, ptr %8, align 8, !tbaa !44
  %35 = load ptr, ptr %9, align 8, !tbaa !63
  %36 = call i32 @on_request_recv(ptr noundef %33, ptr noundef %34, ptr noundef %35)
  store i32 %36, ptr %4, align 4
  store i32 1, ptr %10, align 4
  br label %40

37:                                               ; preds = %16
  br label %39

38:                                               ; preds = %3
  br label %39

39:                                               ; preds = %38, %37
  store i32 0, ptr %4, align 4
  store i32 1, ptr %10, align 4
  br label %40

40:                                               ; preds = %39, %32, %31
  call void @llvm.lifetime.end.p0(i64 8, ptr %9) #11
  call void @llvm.lifetime.end.p0(i64 8, ptr %8) #11
  %41 = load i32, ptr %4, align 4
  ret i32 %41
}