; Function Attrs: nounwind uwtable
define internal range(i32 -902, 1) i32 @on_frame_recv_callback(ptr noundef %0, ptr noundef readonly captures(none) %1, ptr noundef readonly captures(none) %2) #0 {
  %4 = alloca %struct.nghttp2_data_provider2, align 8
  %5 = alloca [1 x %struct.nghttp2_nv], align 16
  %6 = getelementptr inbounds nuw i8, ptr %1, i64 12
  %7 = load i8, ptr %6, align 4, !tbaa !9
  %switch = icmp ult i8 %7, 2
  br i1 %switch, label %8, label %61

8:                                                ; preds = %3
  %9 = getelementptr inbounds nuw i8, ptr %1, i64 13
  %10 = load i8, ptr %9, align 1, !tbaa !9
  %11 = and i8 %10, 1
  %.not = icmp eq i8 %11, 0
  br i1 %.not, label %61, label %12

12:                                               ; preds = %8
  %13 = getelementptr inbounds nuw i8, ptr %1, i64 8
  %14 = load i32, ptr %13, align 8, !tbaa !9
  %15 = tail call ptr @nghttp2_session_get_stream_user_data(ptr noundef %0, i32 noundef %14) #21
  %.not10 = icmp eq ptr %15, null
  br i1 %.not10, label %61, label %16

16:                                               ; preds = %12
  call void @llvm.lifetime.start.p0(i64 40, ptr nonnull %5) #21
  call void @llvm.memcpy.p0.p0.i64(ptr noundef nonnull align 16 dereferenceable(40) %5, ptr noundef nonnull align 16 dereferenceable(40) @__const.on_request_recv.hdrs, i64 40, i1 false)
  %17 = getelementptr inbounds nuw i8, ptr %15, i64 16
  %18 = load ptr, ptr %17, align 8, !tbaa !44
  %.not.i = icmp eq ptr %18, null
  br i1 %.not.i, label %19, label %21

19:                                               ; preds = %16
  %20 = tail call fastcc i32 @error_reply(ptr noundef %0, ptr noundef nonnull %15)
  %.not24.i = icmp eq i32 %20, 0
  %..i = select i1 %.not24.i, i32 0, i32 -902
  br label %on_request_recv.exit

21:                                               ; preds = %16
  %22 = load ptr, ptr @stderr, align 8, !tbaa !4
  %23 = getelementptr inbounds nuw i8, ptr %2, i64 56
  %24 = load ptr, ptr %23, align 8, !tbaa !37
  %25 = tail call i32 (ptr, ptr, ...) @fprintf(ptr noundef %22, ptr noundef nonnull @.str.21, ptr noundef %24, ptr noundef nonnull %18) #25
  %26 = load ptr, ptr %17, align 8, !tbaa !44
  %27 = load i8, ptr %26, align 1, !tbaa !9
  %cond.i.i = icmp eq i8 %27, 47
  br i1 %cond.i.i, label %28, label %check_path.exit.thread.i

28:                                               ; preds = %21
  %29 = tail call ptr @strchr(ptr noundef nonnull readonly dereferenceable(1) %26, i32 noundef 92) #26
  %30 = icmp eq ptr %29, null
  br i1 %30, label %31, label %check_path.exit.thread.i

31:                                               ; preds = %28
  %32 = tail call ptr @strstr(ptr noundef nonnull readonly dereferenceable(1) %26, ptr noundef nonnull dereferenceable(1) @.str.24) #26
  %33 = icmp eq ptr %32, null
  br i1 %33, label %34, label %check_path.exit.thread.i

34:                                               ; preds = %31
  %35 = tail call ptr @strstr(ptr noundef nonnull readonly dereferenceable(1) %26, ptr noundef nonnull dereferenceable(1) @.str.25) #26
  %36 = icmp eq ptr %35, null
  br i1 %36, label %37, label %check_path.exit.thread.i

37:                                               ; preds = %34
  %38 = tail call i64 @strlen(ptr noundef nonnull readonly dereferenceable(1) %26) #26
  %39 = icmp ult i64 %38, 3
  br i1 %39, label %check_path.exit.i, label %ends_with.exit.i.i

ends_with.exit.i.i:                               ; preds = %37
  %40 = getelementptr inbounds nuw i8, ptr %26, i64 %38
  %41 = getelementptr inbounds i8, ptr %40, i64 -3
  %bcmp.i.i.i = tail call i32 @bcmp(ptr noundef nonnull readonly dereferenceable(3) %41, ptr noundef nonnull dereferenceable(3) @.str.26, i64 3)
  %.not.i.i = icmp eq i32 %bcmp.i.i.i, 0
  br i1 %.not.i.i, label %check_path.exit.thread.i, label %check_path.exit.i

check_path.exit.i:                                ; preds = %ends_with.exit.i.i, %37
  %42 = tail call fastcc i32 @ends_with(ptr noundef nonnull readonly %26, ptr noundef nonnull @.str.27)
  %.not25.not.i = icmp eq i32 %42, 0
  br i1 %.not25.not.i, label %.preheader.i, label %check_path.exit.thread.i

check_path.exit.thread.i:                         ; preds = %check_path.exit.i, %ends_with.exit.i.i, %34, %31, %28, %21
  %43 = tail call fastcc i32 @error_reply(ptr noundef %0, ptr noundef nonnull %15)
  %.not26.i = icmp eq i32 %43, 0
  %.29.i = select i1 %.not26.i, i32 0, i32 -902
  br label %on_request_recv.exit

.preheader.i:                                     ; preds = %check_path.exit.i, %.preheader.i
  %.0.i = phi ptr [ %46, %.preheader.i ], [ %26, %check_path.exit.i ]
  %44 = load i8, ptr %.0.i, align 1, !tbaa !9
  %45 = icmp eq i8 %44, 47
  %46 = getelementptr inbounds nuw i8, ptr %.0.i, i64 1
  br i1 %45, label %.preheader.i, label %47, !llvm.loop !46

47:                                               ; preds = %.preheader.i
  %48 = tail call i32 (ptr, i32, ...) @open(ptr noundef nonnull %.0.i, i32 noundef 0) #21
  %49 = icmp eq i32 %48, -1
  br i1 %49, label %50, label %52

50:                                               ; preds = %47
  %51 = tail call fastcc i32 @error_reply(ptr noundef %0, ptr noundef nonnull %15)
  %.not28.i = icmp eq i32 %51, 0
  %.30.i = select i1 %.not28.i, i32 0, i32 -902
  br label %on_request_recv.exit

52:                                               ; preds = %47
  %53 = getelementptr inbounds nuw i8, ptr %15, i64 28
  store i32 %48, ptr %53, align 4, !tbaa !43
  %54 = getelementptr inbounds nuw i8, ptr %15, i64 24
  %55 = load i32, ptr %54, align 8, !tbaa !47
  call void @llvm.lifetime.start.p0(i64 16, ptr nonnull %4) #21
  store i32 %48, ptr %4, align 8, !tbaa !9
  %56 = getelementptr inbounds nuw i8, ptr %4, i64 8
  store ptr @file_read_callback, ptr %56, align 8, !tbaa !48
  %57 = call i32 @nghttp2_submit_response2(ptr noundef %0, i32 noundef %55, ptr noundef nonnull %5, i64 noundef 1, ptr noundef nonnull %4) #21
  %.not.i31.i = icmp eq i32 %57, 0
  br i1 %.not.i31.i, label %send_response.exit.thread.i, label %58

send_response.exit.thread.i:                      ; preds = %52
  call void @llvm.lifetime.end.p0(i64 16, ptr nonnull %4) #21
  br label %on_request_recv.exit

58:                                               ; preds = %52
  %59 = call ptr @nghttp2_strerror(i32 noundef %57) #21
  call void (ptr, ...) @warnx(ptr noundef nonnull @.str.10, ptr noundef %59) #21
  call void @llvm.lifetime.end.p0(i64 16, ptr nonnull %4) #21
  %60 = call i32 @close(i32 noundef %48) #21
  br label %on_request_recv.exit

on_request_recv.exit:                             ; preds = %19, %check_path.exit.thread.i, %50, %send_response.exit.thread.i, %58
  %.021.i = phi i32 [ -902, %58 ], [ %..i, %19 ], [ %.29.i, %check_path.exit.thread.i ], [ %.30.i, %50 ], [ 0, %send_response.exit.thread.i ]
  call void @llvm.lifetime.end.p0(i64 40, ptr nonnull %5) #21
  br label %61

61:                                               ; preds = %8, %3, %12, %on_request_recv.exit
  %.0 = phi i32 [ %.021.i, %on_request_recv.exit ], [ 0, %12 ], [ 0, %3 ], [ 0, %8 ]
  ret i32 %.0
}